Certificate:
    Data:
        Version: 3 (0x2)
        Serial Number:
            28:c6:36:df:6c:e2:27:8e:7f:a4:bf:ba:35:89:f1:01
        Signature Algorithm: sha256WithRSAEncryption
        Issuer: CN=CA-OPENVPN-AEROFOUNDRY
        Validity
            Not Before: May 19 08:28:32 2021 GMT
            Not After : Aug 22 08:28:32 2023 GMT
        Subject: CN=open_vpn_home
        Subject Public Key Info:
            Public Key Algorithm: rsaEncryption
                RSA Public-Key: (2048 bit)
                Modulus:
                    00:e1:05:93:2f:26:4b:f1:e5:3f:72:cf:7f:4a:06:
                    e7:06:2e:76:d2:10:76:1a:57:d3:f1:81:d3:1c:98:
                    6c:08:99:bf:af:df:28:a3:4f:cf:cf:06:95:0e:f2:
                    05:eb:da:45:93:30:d1:81:09:41:6a:c8:56:d9:ac:
                    21:7d:75:63:07:ac:aa:23:96:47:8e:c0:83:32:f7:
                    24:78:24:fb:f4:cb:30:df:bd:f4:00:16:cf:ab:1d:
                    01:e0:fe:59:30:45:0e:94:c0:27:27:67:f0:bb:dc:
                    56:5a:5a:47:4e:77:1f:80:3d:4c:95:c2:f4:e7:99:
                    8b:04:f2:1c:18:a3:b3:20:71:1f:c9:d2:4c:f7:6c:
                    82:e5:b6:44:fb:8c:70:04:cb:e0:ea:66:34:2c:b3:
                    b8:ee:f7:98:d1:3a:39:56:6a:4f:61:99:82:87:ae:
                    a4:e2:cd:09:b7:2d:93:91:33:e7:77:c2:16:a0:26:
                    fd:5b:f3:0b:5d:9a:44:ee:43:06:c0:09:e2:0e:57:
                    cd:01:e2:b9:12:97:d0:cc:e6:16:c8:e3:b1:75:02:
                    d4:5a:1c:ae:5f:2d:e3:48:ad:17:3b:5f:c7:2c:f2:
                    02:cf:af:a4:17:34:4c:88:23:59:82:81:ab:08:99:
                    6e:5a:39:7a:57:17:72:a6:bc:77:61:79:ae:7a:8f:
                    74:27
                Exponent: 65537 (0x10001)
        X509v3 extensions:
            X509v3 Basic Constraints:
                CA:FALSE
            X509v3 Subject Key Identifier:
                C5:46:40:2E:42:07:DE:6A:84:E3:46:EE:81:2E:A4:75:44:8E:1E:9E
            X509v3 Authority Key Identifier:
                keyid:E6:51:21:FA:77:B2:F5:D0:E3:CC:30:29:C7:02:B0:AB:9C:39:DF:9D
                DirName:/CN=CA-OPENVPN-AEROFOUNDRY
                serial:7C:83:1C:A3:F1:7E:E5:0F:E6:FF:E6:8E:35:CF:A1:04:E0:4F:CF:2C

            X509v3 Extended Key Usage:
                TLS Web Client Authentication
            X509v3 Key Usage:
                Digital Signature
    Signature Algorithm: sha256WithRSAEncryption
         18:cb:72:aa:a4:e1:1f:b2:0d:f7:76:28:99:59:a3:5b:07:5f:
         a5:8a:35:30:db:4d:ce:fb:13:45:7e:f9:ab:0b:5b:4e:d8:d3:
         2f:5c:55:2f:47:1c:4b:a3:28:95:92:90:ac:1b:ae:04:4a:5c:
         61:be:1d:7e:4e:e9:c7:00:81:63:ee:af:e5:c3:1d:b8:fb:0e:
         a8:9e:a2:03:d7:be:8a:63:ba:7a:f7:00:88:1e:54:c0:85:61:
         e8:31:20:81:e0:85:64:b9:03:83:f7:80:51:d7:dd:e7:a5:1e:
         80:bc:52:6a:cc:af:eb:f1:30:26:88:d1:e3:c2:6a:18:cb:04:
         e8:09:e5:2f:12:de:b1:62:56:f2:53:b9:05:81:d6:ae:d5:8d:
         b0:84:47:eb:63:c0:e4:0d:10:7e:ee:50:6b:8a:1e:63:bf:e9:
         74:09:7b:fa:79:b5:a7:76:53:c1:ea:1a:b4:19:cb:a5:d0:e9:
         ed:ea:29:dc:f8:dc:8f:6a:73:1f:2f:cc:48:08:5d:01:56:12:
         7d:73:71:5d:a0:a3:4d:9a:fd:71:2e:c2:12:14:93:e9:ba:e7:
         84:32:1d:ad:a7:9c:32:29:66:76:0e:cb:25:a4:68:9a:2a:6b:
         0f:ae:7f:63:aa:1c:3f:a4:76:87:9d:cc:77:74:6b:67:25:5f:
         fa:29:a0:94
-----BEGIN CERTIFICATE-----
MIIDcTCCAlmgAwIBAgIQKMY232ziJ45/pL+6NYnxATANBgkqhkiG9w0BAQsFADAh
MR8wHQYDVQQDDBZDQS1PUEVOVlBOLUFFUk9GT1VORFJZMB4XDTIxMDUxOTA4Mjgz
MloXDTIzMDgyMjA4MjgzMlowGDEWMBQGA1UEAwwNb3Blbl92cG5faG9tZTCCASIw
DQYJKoZIhvcNAQEBBQADggEPADCCAQoCggEBAOEFky8mS/HlP3LPf0oG5wYudtIQ
dhpX0/GB0xyYbAiZv6/fKKNPz88GlQ7yBevaRZMw0YEJQWrIVtmsIX11YwesqiOW
R47AgzL3JHgk+/TLMN+99AAWz6sdAeD+WTBFDpTAJydn8LvcVlpaR053H4A9TJXC
9OeZiwTyHBijsyBxH8nSTPdsguW2RPuMcATL4OpmNCyzuO73mNE6OVZqT2GZgoeu
pOLNCbctk5Ez53fCFqAm/VvzC12aRO5DBsAJ4g5XzQHiuRKX0MzmFsjjsXUC1Foc
rl8t40itFztfxyzyAs+vpBc0TIgjWYKBqwiZblo5elcXcqa8d2F5rnqPdCcCAwEA
AaOBrTCBqjAJBgNVHRMEAjAAMB0GA1UdDgQWBBTFRkAuQgfeaoTjRu6BLqR1RI4e
njBcBgNVHSMEVTBTgBTmUSH6d7L10OPMMCnHArCrnDnfnaElpCMwITEfMB0GA1UE
AwwWQ0EtT1BFTlZQTi1BRVJPRk9VTkRSWYIUfIMco/F+5Q/m/+aONc+hBOBPzyww
EwYDVR0lBAwwCgYIKwYBBQUHAwIwCwYDVR0PBAQDAgeAMA0GCSqGSIb3DQEBCwUA
A4IBAQAYy3KqpOEfsg33diiZWaNbB1+lijUw203O+xNFfvmrC1tO2NMvXFUvRxxL
oyiVkpCsG64ESlxhvh1+TunHAIFj7q/lwx24+w6onqID176KY7p69wCIHlTAhWHo
MSCB4IVkuQOD94BR193npR6AvFJqzK/r8TAmiNHjwmoYywToCeUvEt6xYlbyU7kF
gdau1Y2whEfrY8DkDRB+7lBrih5jv+l0CXv6ebWndlPB6hq0Gcul0Ont6inc+NyP
anMfL8xICF0BVhJ9c3FdoKNNmv1xLsISFJPpuueEMh2tp5wyKWZ2DsslpGiaKmsP
rn9jqhw/pHaHncx3dGtnJV/6KaCU
-----END CERTIFICATE-----

