Certificate:
    Data:
        Version: 3 (0x2)
        Serial Number:
            6d:5f:cf:8e:7e:34:93:3d:dc:17:5d:e9:3a:07:3d:02
        Signature Algorithm: sha256WithRSAEncryption
        Issuer: CN=CA-OPENVPN-AEROFOUNDRY
        Validity
            Not Before: May 28 21:18:55 2021 GMT
            Not After : Aug 31 21:18:55 2023 GMT
        Subject: CN=34.107.112.132
        Subject Public Key Info:
            Public Key Algorithm: rsaEncryption
                RSA Public-Key: (2048 bit)
                Modulus:
                    00:af:1d:14:91:e4:f7:20:18:e2:7c:29:77:71:b8:
                    77:af:73:7c:ce:16:9f:59:5e:9a:25:bd:72:35:24:
                    fb:44:4a:79:29:a9:4b:ef:75:1a:51:bf:de:c4:9f:
                    cb:5c:e1:a2:bf:0a:19:f9:24:e0:eb:e4:d9:39:cf:
                    25:5e:06:96:84:a7:c5:b7:1c:a0:2a:b3:56:5f:e9:
                    25:ef:18:1d:ca:e2:d4:20:81:b2:79:1b:8b:b9:f0:
                    c4:9a:96:5c:3a:ae:b9:76:7c:e5:5c:2f:5e:d9:9c:
                    aa:e0:1e:20:ca:5a:7d:bc:d4:dc:34:89:c0:03:82:
                    bf:6f:a2:51:08:38:e8:f5:a9:4b:80:0c:16:d6:ea:
                    04:31:49:92:d9:f1:8d:9b:8d:17:6c:c2:f3:56:4d:
                    20:38:88:86:86:86:fb:54:97:9a:68:b8:bd:14:bd:
                    6d:e6:b2:12:6f:f9:60:b0:36:91:43:2a:01:42:cc:
                    0f:7f:2e:a1:0b:c8:c3:4b:a8:2f:82:60:57:22:48:
                    e4:ff:03:29:8d:08:f5:7d:d9:33:72:69:3f:63:6a:
                    93:ad:de:ad:2f:c7:9e:4d:47:f1:e4:87:1c:72:a1:
                    72:c2:aa:21:91:0a:14:13:25:e1:10:a7:8e:24:91:
                    f0:48:d6:e9:88:ee:3a:d1:67:3a:04:1f:78:8a:d8:
                    5f:27
                Exponent: 65537 (0x10001)
        X509v3 extensions:
            X509v3 Basic Constraints:
                CA:FALSE
            X509v3 Subject Key Identifier:
                08:1C:AD:AA:A0:7D:F4:1E:79:14:17:CE:EA:36:45:9E:A2:9F:D7:85
            X509v3 Authority Key Identifier:
                keyid:E6:51:21:FA:77:B2:F5:D0:E3:CC:30:29:C7:02:B0:AB:9C:39:DF:9D
                DirName:/CN=CA-OPENVPN-AEROFOUNDRY
                serial:7C:83:1C:A3:F1:7E:E5:0F:E6:FF:E6:8E:35:CF:A1:04:E0:4F:CF:2C

            X509v3 Extended Key Usage:
                TLS Web Server Authentication
            X509v3 Key Usage:
                Digital Signature, Key Encipherment
            X509v3 Subject Alternative Name:
                DNS:*.xaas.fun, DNS:*.xaasora.cloud
    Signature Algorithm: sha256WithRSAEncryption
         17:60:57:4e:c5:e1:c6:5e:fb:11:af:04:0b:17:37:a7:b2:5e:
         b1:82:77:f2:1b:c4:d8:95:d0:d4:40:d2:3b:cf:d8:9d:1a:ee:
         c3:82:d4:a4:7f:90:0a:9d:41:fb:26:d9:bc:5c:7e:c1:d1:f7:
         a3:4e:cc:6c:43:09:b3:12:97:a4:d6:75:83:b8:84:25:19:92:
         29:48:8c:d7:de:fb:70:3d:45:83:ed:4e:1e:fa:b8:30:62:89:
         74:f7:59:db:ab:51:a4:00:ed:dc:03:ac:b1:10:33:95:5d:0a:
         9b:dc:66:3d:b4:b6:9b:1f:ff:d2:5b:e6:23:b0:f9:e8:92:10:
         c0:8b:28:93:e9:4b:a3:14:b9:b4:a3:4f:43:f0:84:f6:81:e3:
         17:2f:96:71:27:85:e9:12:e1:28:90:5c:e3:0b:dc:ab:da:e1:
         aa:0d:5f:48:d7:5f:ca:0b:4d:d1:0b:21:c8:d1:88:f6:14:58:
         95:61:63:f3:1a:ae:a9:77:9a:34:c6:68:3a:1f:af:1e:61:1d:
         48:3d:15:93:4a:b9:8a:d3:0c:66:81:4e:42:b5:93:b6:af:f7:
         e8:d6:b7:91:50:65:42:45:c3:56:ec:e5:2b:70:91:29:af:68:
         da:bb:9a:06:6b:cc:63:91:7d:6c:a9:cd:9f:dc:92:9b:d1:13:
         e8:87:1f:31
-----BEGIN CERTIFICATE-----
MIIDmjCCAoKgAwIBAgIQbV/Pjn40kz3cF13pOgc9AjANBgkqhkiG9w0BAQsFADAh
MR8wHQYDVQQDDBZDQS1PUEVOVlBOLUFFUk9GT1VORFJZMB4XDTIxMDUyODIxMTg1
NVoXDTIzMDgzMTIxMTg1NVowGTEXMBUGA1UEAwwOMzQuMTA3LjExMi4xMzIwggEi
MA0GCSqGSIb3DQEBAQUAA4IBDwAwggEKAoIBAQCvHRSR5PcgGOJ8KXdxuHevc3zO
Fp9ZXpolvXI1JPtESnkpqUvvdRpRv97En8tc4aK/Chn5JODr5Nk5zyVeBpaEp8W3
HKAqs1Zf6SXvGB3K4tQggbJ5G4u58MSallw6rrl2fOVcL17ZnKrgHiDKWn281Nw0
icADgr9volEIOOj1qUuADBbW6gQxSZLZ8Y2bjRdswvNWTSA4iIaGhvtUl5pouL0U
vW3mshJv+WCwNpFDKgFCzA9/LqELyMNLqC+CYFciSOT/AymNCPV92TNyaT9japOt
3q0vx55NR/HkhxxyoXLCqiGRChQTJeEQp44kkfBI1umI7jrRZzoEH3iK2F8nAgMB
AAGjgdUwgdIwCQYDVR0TBAIwADAdBgNVHQ4EFgQUCBytqqB99B55FBfO6jZFnqKf
14UwXAYDVR0jBFUwU4AU5lEh+ney9dDjzDApxwKwq5w5352hJaQjMCExHzAdBgNV
BAMMFkNBLU9QRU5WUE4tQUVST0ZPVU5EUlmCFHyDHKPxfuUP5v/mjjXPoQTgT88s
MBMGA1UdJQQMMAoGCCsGAQUFBwMBMAsGA1UdDwQEAwIFoDAmBgNVHREEHzAdggoq
LnhhYXMuZnVugg8qLnhhYXNvcmEuY2xvdWQwDQYJKoZIhvcNAQELBQADggEBABdg
V07F4cZe+xGvBAsXN6eyXrGCd/IbxNiV0NRA0jvP2J0a7sOC1KR/kAqdQfsm2bxc
fsHR96NOzGxDCbMSl6TWdYO4hCUZkilIjNfe+3A9RYPtTh76uDBiiXT3WdurUaQA
7dwDrLEQM5VdCpvcZj20tpsf/9Jb5iOw+eiSEMCLKJPpS6MUubSjT0PwhPaB4xcv
lnEnhekS4SiQXOML3Kva4aoNX0jXX8oLTdELIcjRiPYUWJVhY/Marql3mjTGaDof
rx5hHUg9FZNKuYrTDGaBTkK1k7av9+jWt5FQZUJFw1bs5StwkSmvaNq7mgZrzGOR
fWypzZ/ckpvRE+iHHzE=
-----END CERTIFICATE-----

